target datalayout = "e-m:e-p270:32:32-p271:32:32-p272:64:64-i64:64-i128:128-f80:128-n8:16:32:64-S128"
target triple = "x86_64-pc-linux-gnu"

%struct.stbi__zbuf = type { ptr, ptr, i32, i32, i32, ptr, ptr, ptr, i32, %struct.stbi__zhuffman, %struct.stbi__zhuffman }
%struct.stbi__zhuffman = type { [512 x i16], [16 x i16], [17 x i32], [16 x i16], [288 x i8], [288 x i16] }

; Function Attrs: nounwind uwtable
define hidden i32 @stbi_zlib_decode_buffer(ptr noundef %0, i32 noundef %1, ptr noundef %2, i32 noundef %3) #0 {
  %5 = alloca i32, align 4
  %6 = alloca ptr, align 8
  %7 = alloca i32, align 4
  %8 = alloca ptr, align 8
  %9 = alloca i32, align 4
  %10 = alloca %struct.stbi__zbuf, align 8
  %11 = alloca i32, align 4
  store ptr %0, ptr %6, align 8
  store i32 %1, ptr %7, align 4
  store ptr %2, ptr %8, align 8
  store i32 %3, ptr %9, align 4
  call void @llvm.lifetime.start.p0(i64 4104, ptr %10) #19
  %12 = load ptr, ptr %8, align 8
  %13 = getelementptr inbounds nuw %struct.stbi__zbuf, ptr %10, i32 0, i32 0
  store ptr %12, ptr %13, align 8
  %14 = load ptr, ptr %8, align 8
  %15 = load i32, ptr %9, align 4
  %16 = sext i32 %15 to i64
  %17 = getelementptr inbounds i8, ptr %14, i64 %16
  %18 = getelementptr inbounds nuw %struct.stbi__zbuf, ptr %10, i32 0, i32 1
  store ptr %17, ptr %18, align 8
  %19 = load ptr, ptr %6, align 8
  %20 = load i32, ptr %7, align 4
  %21 = call i32 @stbi__do_zlib(ptr noundef %10, ptr noundef %19, i32 noundef %20, i32 noundef 0, i32 noundef 1)
  %22 = icmp ne i32 %21, 0
  br i1 %22, label %23, label %32

23:                                               ; preds = %4
  %24 = getelementptr inbounds nuw %struct.stbi__zbuf, ptr %10, i32 0, i32 5
  %25 = load ptr, ptr %24, align 8
  %26 = getelementptr inbounds nuw %struct.stbi__zbuf, ptr %10, i32 0, i32 6
  %27 = load ptr, ptr %26, align 8
  %28 = ptrtoint ptr %25 to i64
  %29 = ptrtoint ptr %27 to i64
  %30 = sub i64 %28, %29
  %31 = trunc i64 %30 to i32
  store i32 %31, ptr %5, align 4
  store i32 1, ptr %11, align 4
  br label %33

32:                                               ; preds = %4
  store i32 -1, ptr %5, align 4
  store i32 1, ptr %11, align 4
  br label %33

33:                                               ; preds = %32, %23
  call void @llvm.lifetime.end.p0(i64 4104, ptr %10) #19
  %34 = load i32, ptr %5, align 4
  ret i32 %34
}